target datalayout = "e-m:e-p270:32:32-p271:32:32-p272:64:64-i64:64-i128:128-f80:128-n8:16:32:64-S128"
target triple = "x86_64-pc-linux-gnu"

%"class.Luau::CodeGen::UnwindBuilderDwarf2" = type { %"class.Luau::CodeGen::UnwindBuilder", i64, %"class.std::vector", [1024 x i8], ptr, ptr }
%"class.Luau::CodeGen::UnwindBuilder" = type { ptr }
%"class.std::vector" = type { %"struct.std::_Vector_base" }
%"struct.std::_Vector_base" = type { %"struct.std::_Vector_base<Luau::CodeGen::UnwindFunctionDwarf2, std::allocator<Luau::CodeGen::UnwindFunctionDwarf2>>::_Vector_impl" }
%"struct.std::_Vector_base<Luau::CodeGen::UnwindFunctionDwarf2, std::allocator<Luau::CodeGen::UnwindFunctionDwarf2>>::_Vector_impl" = type { %"struct.std::_Vector_base<Luau::CodeGen::UnwindFunctionDwarf2, std::allocator<Luau::CodeGen::UnwindFunctionDwarf2>>::_Vector_impl_data" }
%"struct.std::_Vector_base<Luau::CodeGen::UnwindFunctionDwarf2, std::allocator<Luau::CodeGen::UnwindFunctionDwarf2>>::_Vector_impl_data" = type { ptr, ptr, ptr }

; Function Attrs: mustprogress nounwind uwtable
define dso_local noundef i64 @_ZNK4Luau7CodeGen19UnwindBuilderDwarf217getUnwindInfoSizeEm(ptr noundef nonnull align 8 dereferenceable(1080) %0, i64 noundef %1) unnamed_addr #0 align 2 {
  %3 = alloca ptr, align 8
  %4 = alloca i64, align 8
  store ptr %0, ptr %3, align 8, !tbaa !4
  store i64 %1, ptr %4, align 8, !tbaa !9
  %5 = load ptr, ptr %3, align 8
  %6 = getelementptr inbounds nuw %"class.Luau::CodeGen::UnwindBuilderDwarf2", ptr %5, i32 0, i32 4
  %7 = load ptr, ptr %6, align 8, !tbaa !22
  %8 = getelementptr inbounds nuw %"class.Luau::CodeGen::UnwindBuilderDwarf2", ptr %5, i32 0, i32 3
  %9 = getelementptr inbounds [1024 x i8], ptr %8, i64 0, i64 0
  %10 = ptrtoint ptr %7 to i64
  %11 = ptrtoint ptr %9 to i64
  %12 = sub i64 %10, %11
  ret i64 %12
}